target datalayout = "e-m:e-p270:32:32-p271:32:32-p272:64:64-i64:64-i128:128-f80:128-n8:16:32:64-S128"
target triple = "x86_64-pc-linux-gnu"

%struct._zval_struct = type { %union._zend_value, %union.anon.0, %union.anon.3 }
%union._zend_value = type { i64 }
%union.anon.0 = type { i32 }
%union.anon.3 = type { i32 }
%struct._zend_refcounted_h = type { i32, %union.anon }
%union.anon = type { i32 }
%struct._xmlNode = type { ptr, i32, ptr, ptr, ptr, ptr, ptr, ptr, ptr, ptr, ptr, ptr, ptr, ptr, i16, i16 }
%struct._dom_object = type { ptr, ptr, ptr, %struct._zend_object }
%struct._zend_object = type { %struct._zend_refcounted_h, i32, ptr, ptr, ptr, [1 x %struct._zval_struct] }

; Function Attrs: nounwind uwtable
define internal ptr @_php_dom_insert_fragment(ptr noundef %0, ptr noundef %1, ptr noundef %2, ptr noundef %3, ptr noundef %4) #0 {
  %6 = alloca ptr, align 8
  %7 = alloca ptr, align 8
  %8 = alloca ptr, align 8
  %9 = alloca ptr, align 8
  %10 = alloca ptr, align 8
  %11 = alloca ptr, align 8
  %12 = alloca ptr, align 8
  %13 = alloca ptr, align 8
  store ptr %0, ptr %6, align 8
  store ptr %1, ptr %7, align 8
  store ptr %2, ptr %8, align 8
  store ptr %3, ptr %9, align 8
  store ptr %4, ptr %10, align 8
  %14 = load ptr, ptr %9, align 8
  %15 = getelementptr inbounds %struct._xmlNode, ptr %14, i32 0, i32 3
  %16 = load ptr, ptr %15, align 8
  store ptr %16, ptr %11, align 8
  %17 = load ptr, ptr %11, align 8
  %18 = icmp ne ptr %17, null
  br i1 %18, label %19, label %104

19:                                               ; preds = %5
  %20 = load ptr, ptr %7, align 8
  %21 = icmp eq ptr %20, null
  br i1 %21, label %22, label %26

22:                                               ; preds = %19
  %23 = load ptr, ptr %11, align 8
  %24 = load ptr, ptr %6, align 8
  %25 = getelementptr inbounds %struct._xmlNode, ptr %24, i32 0, i32 3
  store ptr %23, ptr %25, align 8
  br label %30

26:                                               ; preds = %19
  %27 = load ptr, ptr %11, align 8
  %28 = load ptr, ptr %7, align 8
  %29 = getelementptr inbounds %struct._xmlNode, ptr %28, i32 0, i32 6
  store ptr %27, ptr %29, align 8
  br label %30

30:                                               ; preds = %26, %22
  %31 = load ptr, ptr %7, align 8
  %32 = load ptr, ptr %11, align 8
  %33 = getelementptr inbounds %struct._xmlNode, ptr %32, i32 0, i32 7
  store ptr %31, ptr %33, align 8
  %34 = load ptr, ptr %8, align 8
  %35 = icmp eq ptr %34, null
  br i1 %35, label %36, label %42

36:                                               ; preds = %30
  %37 = load ptr, ptr %9, align 8
  %38 = getelementptr inbounds %struct._xmlNode, ptr %37, i32 0, i32 4
  %39 = load ptr, ptr %38, align 8
  %40 = load ptr, ptr %6, align 8
  %41 = getelementptr inbounds %struct._xmlNode, ptr %40, i32 0, i32 4
  store ptr %39, ptr %41, align 8
  br label %53

42:                                               ; preds = %30
  %43 = load ptr, ptr %8, align 8
  %44 = load ptr, ptr %9, align 8
  %45 = getelementptr inbounds %struct._xmlNode, ptr %44, i32 0, i32 4
  %46 = load ptr, ptr %45, align 8
  %47 = getelementptr inbounds %struct._xmlNode, ptr %46, i32 0, i32 6
  store ptr %43, ptr %47, align 8
  %48 = load ptr, ptr %9, align 8
  %49 = getelementptr inbounds %struct._xmlNode, ptr %48, i32 0, i32 4
  %50 = load ptr, ptr %49, align 8
  %51 = load ptr, ptr %8, align 8
  %52 = getelementptr inbounds %struct._xmlNode, ptr %51, i32 0, i32 7
  store ptr %50, ptr %52, align 8
  br label %53

53:                                               ; preds = %42, %36
  %54 = load ptr, ptr %11, align 8
  store ptr %54, ptr %12, align 8
  br label %55

55:                                               ; preds = %95, %53
  %56 = load ptr, ptr %12, align 8
  %57 = icmp ne ptr %56, null
  br i1 %57, label %58, label %99

58:                                               ; preds = %55
  %59 = load ptr, ptr %6, align 8
  %60 = load ptr, ptr %12, align 8
  %61 = getelementptr inbounds %struct._xmlNode, ptr %60, i32 0, i32 5
  store ptr %59, ptr %61, align 8
  %62 = load ptr, ptr %12, align 8
  %63 = getelementptr inbounds %struct._xmlNode, ptr %62, i32 0, i32 8
  %64 = load ptr, ptr %63, align 8
  %65 = load ptr, ptr %6, align 8
  %66 = getelementptr inbounds %struct._xmlNode, ptr %65, i32 0, i32 8
  %67 = load ptr, ptr %66, align 8
  %68 = icmp ne ptr %64, %67
  br i1 %68, label %69, label %88

69:                                               ; preds = %58
  %70 = load ptr, ptr %12, align 8
  %71 = load ptr, ptr %6, align 8
  %72 = getelementptr inbounds %struct._xmlNode, ptr %71, i32 0, i32 8
  %73 = load ptr, ptr %72, align 8
  call void @xmlSetTreeDoc(ptr noundef %70, ptr noundef %73)
  %74 = load ptr, ptr %12, align 8
  %75 = getelementptr inbounds %struct._xmlNode, ptr %74, i32 0, i32 0
  %76 = load ptr, ptr %75, align 8
  store ptr %76, ptr %13, align 8
  %77 = load ptr, ptr %13, align 8
  %78 = icmp ne ptr %77, null
  br i1 %78, label %79, label %87

79:                                               ; preds = %69
  %80 = load ptr, ptr %10, align 8
  %81 = getelementptr inbounds %struct._dom_object, ptr %80, i32 0, i32 1
  %82 = load ptr, ptr %81, align 8
  %83 = load ptr, ptr %13, align 8
  %84 = getelementptr inbounds %struct._dom_object, ptr %83, i32 0, i32 1
  store ptr %82, ptr %84, align 8
  %85 = load ptr, ptr %13, align 8
  %86 = call i32 @php_libxml_increment_doc_ref(ptr noundef %85, ptr noundef null)
  br label %87

87:                                               ; preds = %79, %69
  br label %88

88:                                               ; preds = %87, %58
  %89 = load ptr, ptr %12, align 8
  %90 = load ptr, ptr %9, align 8
  %91 = getelementptr inbounds %struct._xmlNode, ptr %90, i32 0, i32 4
  %92 = load ptr, ptr %91, align 8
  %93 = icmp eq ptr %89, %92
  br i1 %93, label %94, label %95

94:                                               ; preds = %88
  br label %99

95:                                               ; preds = %88
  %96 = load ptr, ptr %12, align 8
  %97 = getelementptr inbounds %struct._xmlNode, ptr %96, i32 0, i32 6
  %98 = load ptr, ptr %97, align 8
  store ptr %98, ptr %12, align 8
  br label %55

99:                                               ; preds = %94, %55
  %100 = load ptr, ptr %9, align 8
  %101 = getelementptr inbounds %struct._xmlNode, ptr %100, i32 0, i32 3
  store ptr null, ptr %101, align 8
  %102 = load ptr, ptr %9, align 8
  %103 = getelementptr inbounds %struct._xmlNode, ptr %102, i32 0, i32 4
  store ptr null, ptr %103, align 8
  br label %104

104:                                              ; preds = %99, %5
  %105 = load ptr, ptr %11, align 8
  ret ptr %105
}